target datalayout = "e-m:e-p270:32:32-p271:32:32-p272:64:64-i64:64-i128:128-f80:128-n8:16:32:64-S128"
target triple = "x86_64-pc-linux-gnu"

%struct.QemuMutex = type { %union.pthread_mutex_t, i8 }
%union.pthread_mutex_t = type { %struct.__pthread_mutex_s }
%struct.__pthread_mutex_s = type { i32, i32, i32, i32, i32, i16, i16, %struct.__pthread_internal_list }
%struct.__pthread_internal_list = type { ptr, ptr }
%struct.Job = type { ptr, ptr, ptr, i8, i8, ptr, ptr, %struct.ProgressMeter, ptr, i32, i32, %struct.QEMUTimer, i32, i8, i8, i8, i8, i8, i8, i32, ptr, %struct.NotifierList, %struct.NotifierList, %struct.NotifierList, %struct.NotifierList, %struct.NotifierList, %struct.anon.1, ptr, %struct.anon.2 }
%struct.ProgressMeter = type { i64, i64, %struct.QemuMutex }
%struct.QEMUTimer = type { i64, ptr, ptr, ptr, ptr, i32, i32 }
%struct.NotifierList = type { %struct.anon.0 }
%struct.anon.0 = type { ptr }
%struct.anon.1 = type { ptr, ptr }
%struct.anon.2 = type { ptr, ptr }
%struct.JobDriver = type { i64, i32, ptr, ptr, ptr, ptr, ptr, ptr, ptr, ptr, ptr, ptr, ptr }

@qemu_mutex_lock_func = external global ptr, align 8
@job_mutex = dso_local global %struct.QemuMutex zeroinitializer, align 8
@.str = private unnamed_addr constant [14 x i8] c"../qemu/job.c\00", align 1
@.str.6 = private unnamed_addr constant [22 x i8] c"qemu_in_main_thread()\00", align 1
@.str.19 = private unnamed_addr constant [4 x i8] c"job\00", align 1
@__PRETTY_FUNCTION__.job_user_resume_locked = private unnamed_addr constant [45 x i8] c"void job_user_resume_locked(Job *, Error **)\00", align 1
@__func__.job_user_resume_locked = private unnamed_addr constant [23 x i8] c"job_user_resume_locked\00", align 1
@.str.20 = private unnamed_addr constant [39 x i8] c"Can't resume a job that was not paused\00", align 1

; Function Attrs: nounwind sspstrong uwtable
define dso_local void @job_lock() #0 {
  %1 = alloca ptr, align 8
  %2 = alloca ptr, align 8
  %3 = alloca ptr, align 8
  call void @llvm.lifetime.start.p0(i64 8, ptr %1) #16
  br label %4

4:                                                ; preds = %0
  br i1 false, label %5, label %6

5:                                                ; preds = %4
  call void @qemu_build_not_reached_always() #17, !srcloc !4
  unreachable

6:                                                ; preds = %4
  %7 = load atomic i64, ptr @qemu_mutex_lock_func monotonic, align 8
  store i64 %7, ptr %3, align 8
  %8 = load ptr, ptr %3, align 8
  store ptr %8, ptr %2, align 8
  %9 = load ptr, ptr %2, align 8
  store ptr %9, ptr %1, align 8
  %10 = load ptr, ptr %1, align 8
  call void %10(ptr noundef @job_mutex, ptr noundef @.str, i32 noundef 101)
  call void @llvm.lifetime.end.p0(i64 8, ptr %1) #16
  ret void
}

; Function Attrs: nounwind sspstrong uwtable
define dso_local void @job_unlock() #0 {
  call void @qemu_mutex_unlock_impl(ptr noundef @job_mutex, ptr noundef @.str, i32 noundef 106)
  ret void
}

; Function Attrs: nounwind sspstrong uwtable
define dso_local void @job_user_resume_locked(ptr noundef %0, ptr noundef %1) #0 {
  %3 = alloca ptr, align 8
  %4 = alloca ptr, align 8
  store ptr %0, ptr %3, align 8
  store ptr %1, ptr %4, align 8
  %5 = load ptr, ptr %3, align 8
  %6 = icmp ne ptr %5, null
  br i1 %6, label %7, label %8

7:                                                ; preds = %2
  br label %9

8:                                                ; preds = %2
  call void @__assert_fail(ptr noundef @.str.19, ptr noundef @.str, i32 noundef 736, ptr noundef @__PRETTY_FUNCTION__.job_user_resume_locked) #20
  unreachable

9:                                                ; preds = %7
  br label %10

10:                                               ; preds = %9
  %11 = call zeroext i1 @qemu_in_main_thread()
  br i1 %11, label %12, label %13

12:                                               ; preds = %10
  br label %14

13:                                               ; preds = %10
  call void @__assert_fail(ptr noundef @.str.6, ptr noundef @.str, i32 noundef 737, ptr noundef @__PRETTY_FUNCTION__.job_user_resume_locked) #20
  unreachable

14:                                               ; preds = %12
  br label %15

15:                                               ; preds = %14
  %16 = load ptr, ptr %3, align 8
  %17 = getelementptr inbounds nuw %struct.Job, ptr %16, i32 0, i32 15
  %18 = load i8, ptr %17, align 2, !range !7, !noundef !8
  %19 = trunc i8 %18 to i1
  br i1 %19, label %20, label %25

20:                                               ; preds = %15
  %21 = load ptr, ptr %3, align 8
  %22 = getelementptr inbounds nuw %struct.Job, ptr %21, i32 0, i32 12
  %23 = load i32, ptr %22, align 8
  %24 = icmp sle i32 %23, 0
  br i1 %24, label %25, label %27

25:                                               ; preds = %20, %15
  %26 = load ptr, ptr %4, align 8
  call void (ptr, ptr, i32, ptr, ptr, ...) @error_setg_internal(ptr noundef %26, ptr noundef @.str, i32 noundef 739, ptr noundef @__func__.job_user_resume_locked, ptr noundef @.str.20)
  br label %51

27:                                               ; preds = %20
  %28 = load ptr, ptr %3, align 8
  %29 = load ptr, ptr %4, align 8
  %30 = call i32 @job_apply_verb_locked(ptr noundef %28, i32 noundef 2, ptr noundef %29)
  %31 = icmp ne i32 %30, 0
  br i1 %31, label %32, label %33

32:                                               ; preds = %27
  br label %51

33:                                               ; preds = %27
  %34 = load ptr, ptr %3, align 8
  %35 = getelementptr inbounds nuw %struct.Job, ptr %34, i32 0, i32 1
  %36 = load ptr, ptr %35, align 8
  %37 = getelementptr inbounds nuw %struct.JobDriver, ptr %36, i32 0, i32 5
  %38 = load ptr, ptr %37, align 8
  %39 = icmp ne ptr %38, null
  br i1 %39, label %40, label %47

40:                                               ; preds = %33
  call void @job_unlock()
  %41 = load ptr, ptr %3, align 8
  %42 = getelementptr inbounds nuw %struct.Job, ptr %41, i32 0, i32 1
  %43 = load ptr, ptr %42, align 8
  %44 = getelementptr inbounds nuw %struct.JobDriver, ptr %43, i32 0, i32 5
  %45 = load ptr, ptr %44, align 8
  %46 = load ptr, ptr %3, align 8
  call void %45(ptr noundef %46)
  call void @job_lock()
  br label %47

47:                                               ; preds = %40, %33
  %48 = load ptr, ptr %3, align 8
  %49 = getelementptr inbounds nuw %struct.Job, ptr %48, i32 0, i32 15
  store i8 0, ptr %49, align 2
  %50 = load ptr, ptr %3, align 8
  call void @job_resume_locked(ptr noundef %50)
  br label %51

51:                                               ; preds = %47, %32, %25
  ret void
}