; Function Attrs: nounwind sspstrong uwtable
define dso_local void @job_user_resume_locked(ptr noundef %0, ptr noundef %1) local_unnamed_addr #0 {
  %.not = icmp eq ptr %0, null
  br i1 %.not, label %3, label %4

3:                                                ; preds = %2
  tail call void @__assert_fail(ptr noundef nonnull @.str.19, ptr noundef nonnull @.str, i32 noundef 736, ptr noundef nonnull @__PRETTY_FUNCTION__.job_user_resume_locked) #17
  unreachable

4:                                                ; preds = %2
  %5 = tail call zeroext i1 @qemu_in_main_thread() #15
  br i1 %5, label %7, label %6

6:                                                ; preds = %4
  tail call void @__assert_fail(ptr noundef nonnull @.str.6, ptr noundef nonnull @.str, i32 noundef 737, ptr noundef nonnull @__PRETTY_FUNCTION__.job_user_resume_locked) #17
  unreachable

7:                                                ; preds = %4
  %8 = getelementptr inbounds nuw i8, ptr %0, i64 182
  %9 = load i8, ptr %8, align 2, !range !4, !noundef !5
  %10 = trunc nuw i8 %9 to i1
  br i1 %10, label %11, label %15

11:                                               ; preds = %7
  %12 = getelementptr inbounds nuw i8, ptr %0, i64 176
  %13 = load i32, ptr %12, align 8
  %14 = icmp slt i32 %13, 1
  br i1 %14, label %15, label %16

15:                                               ; preds = %11, %7
  tail call void (ptr, ptr, i32, ptr, ptr, ...) @error_setg_internal(ptr noundef %1, ptr noundef nonnull @.str, i32 noundef 739, ptr noundef nonnull @__func__.job_user_resume_locked, ptr noundef nonnull @.str.20) #15
  br label %30

16:                                               ; preds = %11
  %17 = tail call i32 @job_apply_verb_locked(ptr noundef nonnull %0, i32 noundef 2, ptr noundef %1)
  %.not11 = icmp eq i32 %17, 0
  br i1 %.not11, label %18, label %30

18:                                               ; preds = %16
  %19 = getelementptr inbounds nuw i8, ptr %0, i64 8
  %20 = load ptr, ptr %19, align 8
  %21 = getelementptr inbounds nuw i8, ptr %20, i64 40
  %22 = load ptr, ptr %21, align 8
  %.not12 = icmp eq ptr %22, null
  br i1 %.not12, label %29, label %23

23:                                               ; preds = %18
  tail call void @qemu_mutex_unlock_impl(ptr noundef nonnull @job_mutex, ptr noundef nonnull @.str, i32 noundef 106) #15
  %24 = load ptr, ptr %19, align 8
  %25 = getelementptr inbounds nuw i8, ptr %24, i64 40
  %26 = load ptr, ptr %25, align 8
  tail call void %26(ptr noundef nonnull %0) #15
  %27 = load atomic i64, ptr @qemu_mutex_lock_func monotonic, align 8
  %28 = inttoptr i64 %27 to ptr
  tail call void %28(ptr noundef nonnull @job_mutex, ptr noundef nonnull @.str, i32 noundef 101) #15
  br label %29

29:                                               ; preds = %23, %18
  store i8 0, ptr %8, align 2
  tail call void @job_resume_locked(ptr noundef nonnull %0)
  br label %30

30:                                               ; preds = %16, %29, %15
  ret void
}